; Function Attrs: mustprogress nounwind uwtable
define dso_local void @_ZN4llvm9symbolize16PlainPrinterBase5printERKNS0_7RequestERKNS_10DILineInfoE(ptr noundef nonnull align 8 dereferenceable(40) %0, ptr nocapture noundef nonnull readonly align 8 dereferenceable(48) %1, ptr noundef nonnull align 8 dereferenceable(181) %2) unnamed_addr #0 align 2 {
  %4 = getelementptr inbounds nuw i8, ptr %1, i64 16
  %.sroa.0.0.copyload = load i64, ptr %4, align 8
  %.sroa.2.0..sroa_idx = getelementptr inbounds i8, ptr %1, i64 24
  %.sroa.2.0.copyload = load i8, ptr %.sroa.2.0..sroa_idx, align 8
  %5 = trunc i8 %.sroa.2.0.copyload to i1
  br i1 %5, label %6, label %_ZN4llvm9symbolize16PlainPrinterBase11printHeaderESt8optionalImE.exit

6:                                                ; preds = %3
  %7 = getelementptr inbounds nuw i8, ptr %0, i64 32
  %8 = load i8, ptr %7, align 8
  %9 = trunc i8 %8 to i1
  br i1 %9, label %10, label %_ZN4llvm9symbolize16PlainPrinterBase11printHeaderESt8optionalImE.exit

10:                                               ; preds = %6
  %11 = getelementptr inbounds nuw i8, ptr %0, i64 8
  %12 = load ptr, ptr %11, align 8
  %13 = getelementptr inbounds nuw i8, ptr %12, i64 24
  %14 = load ptr, ptr %13, align 8
  %15 = getelementptr inbounds nuw i8, ptr %12, i64 32
  %16 = load ptr, ptr %15, align 8
  %17 = ptrtoint ptr %14 to i64
  %18 = ptrtoint ptr %16 to i64
  %19 = sub i64 %17, %18
  %20 = icmp ult i64 %19, 2
  br i1 %20, label %21, label %23

21:                                               ; preds = %10
  %22 = tail call noundef nonnull align 8 dereferenceable(48) ptr @_ZN4llvm11raw_ostream5writeEPKcm(ptr noundef nonnull align 8 dereferenceable(48) %12, ptr noundef nonnull @.str, i64 noundef 2) #17
  br label %_ZN4llvm11raw_ostreamlsEPKc.exit.i

23:                                               ; preds = %10
  store i16 30768, ptr %16, align 1
  %24 = load ptr, ptr %15, align 8
  %25 = getelementptr inbounds i8, ptr %24, i64 2
  store ptr %25, ptr %15, align 8
  br label %_ZN4llvm11raw_ostreamlsEPKc.exit.i

_ZN4llvm11raw_ostreamlsEPKc.exit.i:               ; preds = %23, %21
  %26 = load ptr, ptr %11, align 8
  %27 = tail call noundef nonnull align 8 dereferenceable(48) ptr @_ZN4llvm11raw_ostream9write_hexEy(ptr noundef nonnull align 8 dereferenceable(48) %26, i64 noundef %.sroa.0.0.copyload) #17
  %28 = getelementptr inbounds i8, ptr %0, i64 34
  %29 = load i8, ptr %28, align 2
  %30 = trunc i8 %29 to i1
  %31 = select i1 %30, ptr @.str.1, ptr @.str.2
  %32 = select i1 %30, i64 2, i64 1
  %33 = load ptr, ptr %11, align 8
  %34 = getelementptr inbounds nuw i8, ptr %33, i64 24
  %35 = load ptr, ptr %34, align 8
  %36 = getelementptr inbounds nuw i8, ptr %33, i64 32
  %37 = load ptr, ptr %36, align 8
  %38 = ptrtoint ptr %35 to i64
  %39 = ptrtoint ptr %37 to i64
  %40 = sub i64 %38, %39
  %41 = icmp ugt i64 %32, %40
  br i1 %41, label %42, label %44

42:                                               ; preds = %_ZN4llvm11raw_ostreamlsEPKc.exit.i
  %43 = tail call noundef nonnull align 8 dereferenceable(48) ptr @_ZN4llvm11raw_ostream5writeEPKcm(ptr noundef nonnull align 8 dereferenceable(48) %33, ptr noundef nonnull %31, i64 noundef %32) #17
  br label %_ZN4llvm9symbolize16PlainPrinterBase11printHeaderESt8optionalImE.exit

44:                                               ; preds = %_ZN4llvm11raw_ostreamlsEPKc.exit.i
  tail call void @llvm.memcpy.p0.p0.i64(ptr noundef nonnull align 1 dereferenceable(1) %37, ptr noundef nonnull align 1 dereferenceable(1) %31, i64 %32, i1 false)
  %45 = load ptr, ptr %36, align 8
  %46 = getelementptr inbounds i8, ptr %45, i64 %32
  store ptr %46, ptr %36, align 8
  br label %_ZN4llvm9symbolize16PlainPrinterBase11printHeaderESt8optionalImE.exit

_ZN4llvm9symbolize16PlainPrinterBase11printHeaderESt8optionalImE.exit: ; preds = %3, %6, %42, %44
  tail call void @_ZN4llvm9symbolize16PlainPrinterBase5printERKNS_10DILineInfoEb(ptr noundef nonnull align 8 dereferenceable(40) %0, ptr noundef nonnull align 8 dereferenceable(181) %2, i1 noundef zeroext false)
  %47 = load ptr, ptr %0, align 8
  %48 = getelementptr inbounds i8, ptr %47, i64 96
  %49 = load ptr, ptr %48, align 8
  tail call void %49(ptr noundef nonnull align 8 dereferenceable(40) %0) #17
  ret void
}